target datalayout = "e-m:e-p270:32:32-p271:32:32-p272:64:64-i64:64-i128:128-f80:128-n8:16:32:64-S128"
target triple = "x86_64-pc-linux-gnu"

%struct.AVFormatContext = type { ptr, ptr, ptr, ptr, ptr, i32, i32, ptr, i32, ptr, i32, ptr, ptr, i64, i64, i64, i32, i32, i32, i64, i64, ptr, i32, i32, ptr, i32, i32, i32, i32, ptr, i64, i32, i32, %struct.AVIOInterruptCB, i32, i32, i32, i32, i64, i32, i32, i32, i32, i32, i32, i32, i32, i32, i32, i32, i32, i64, i32, i32, i32, i32, i32, ptr, ptr, ptr, ptr, i32, ptr, ptr, ptr, ptr, i32, ptr, ptr, i64, ptr, ptr, ptr, i64 }
%struct.AVIOInterruptCB = type { ptr, ptr }
%struct.AVStream = type { ptr, i32, i32, ptr, ptr, %struct.AVRational, i64, i64, i64, i32, i32, %struct.AVRational, ptr, %struct.AVRational, %struct.AVPacket, i32, %struct.AVRational, i32 }
%struct.AVPacket = type { ptr, i64, i64, ptr, i32, i32, i32, ptr, i32, i64, i64, ptr, ptr, %struct.AVRational }
%struct.AVRational = type { i32, i32 }
%struct.AVCodecParameters = type { i32, i32, i32, ptr, i32, ptr, i32, i32, i64, i32, i32, i32, i32, i32, i32, %struct.AVRational, %struct.AVRational, i32, i32, i32, i32, i32, i32, i32, %struct.AVChannelLayout, i32, i32, i32, i32, i32, i32 }
%struct.AVChannelLayout = type { i32, i32, %union.anon, ptr }
%union.anon = type { i64 }

@.str.36 = private unnamed_addr constant [29 x i8] c"ERROR: Codec not supported.\0A\00", align 1
@.str.37 = private unnamed_addr constant [83 x i8] c"Warning: generating rarely used 4:1:1 YUV stream, some mjpegtools might not work.\0A\00", align 1
@.str.38 = private unnamed_addr constant [101 x i8] c"'%s' is not an official yuv4mpegpipe pixel format. Use '-strict -1' to encode to this pixel format.\0A\00", align 1
@.str.39 = private unnamed_addr constant [72 x i8] c"Warning: generating non standard YUV stream. Mjpegtools will not work.\0A\00", align 1

; Function Attrs: nounwind uwtable
define internal i32 @yuv4_init(ptr noundef %0) #0 {
  %2 = alloca i32, align 4
  %3 = alloca ptr, align 8
  store ptr %0, ptr %3, align 8, !tbaa !4
  %4 = load ptr, ptr %3, align 8, !tbaa !4
  %5 = getelementptr inbounds nuw %struct.AVFormatContext, ptr %4, i32 0, i32 7
  %6 = load ptr, ptr %5, align 8, !tbaa !28
  %7 = getelementptr inbounds ptr, ptr %6, i64 0
  %8 = load ptr, ptr %7, align 8, !tbaa !29
  %9 = getelementptr inbounds nuw %struct.AVStream, ptr %8, i32 0, i32 3
  %10 = load ptr, ptr %9, align 8, !tbaa !31
  %11 = getelementptr inbounds nuw %struct.AVCodecParameters, ptr %10, i32 0, i32 1
  %12 = load i32, ptr %11, align 4, !tbaa !58
  %13 = icmp ne i32 %12, 135169
  br i1 %13, label %14, label %27

14:                                               ; preds = %1
  %15 = load ptr, ptr %3, align 8, !tbaa !4
  %16 = getelementptr inbounds nuw %struct.AVFormatContext, ptr %15, i32 0, i32 7
  %17 = load ptr, ptr %16, align 8, !tbaa !28
  %18 = getelementptr inbounds ptr, ptr %17, i64 0
  %19 = load ptr, ptr %18, align 8, !tbaa !29
  %20 = getelementptr inbounds nuw %struct.AVStream, ptr %19, i32 0, i32 3
  %21 = load ptr, ptr %20, align 8, !tbaa !31
  %22 = getelementptr inbounds nuw %struct.AVCodecParameters, ptr %21, i32 0, i32 1
  %23 = load i32, ptr %22, align 4, !tbaa !58
  %24 = icmp ne i32 %23, 13
  br i1 %24, label %25, label %27

25:                                               ; preds = %14
  %26 = load ptr, ptr %3, align 8, !tbaa !4
  call void (ptr, i32, ptr, ...) @av_log(ptr noundef %26, i32 noundef 16, ptr noundef @.str.36)
  store i32 -1094995529, ptr %2, align 4
  br label %62

27:                                               ; preds = %14, %1
  %28 = load ptr, ptr %3, align 8, !tbaa !4
  %29 = getelementptr inbounds nuw %struct.AVFormatContext, ptr %28, i32 0, i32 7
  %30 = load ptr, ptr %29, align 8, !tbaa !28
  %31 = getelementptr inbounds ptr, ptr %30, i64 0
  %32 = load ptr, ptr %31, align 8, !tbaa !29
  %33 = getelementptr inbounds nuw %struct.AVStream, ptr %32, i32 0, i32 3
  %34 = load ptr, ptr %33, align 8, !tbaa !31
  %35 = getelementptr inbounds nuw %struct.AVCodecParameters, ptr %34, i32 0, i32 7
  %36 = load i32, ptr %35, align 4, !tbaa !50
  switch i32 %36, label %59 [
    i32 7, label %37
    i32 8, label %39
    i32 0, label %39
    i32 4, label %39
    i32 5, label %39
    i32 12, label %39
    i32 13, label %39
    i32 14, label %39
    i32 173, label %40
    i32 168, label %40
    i32 166, label %40
    i32 30, label %40
    i32 60, label %40
    i32 70, label %40
    i32 66, label %40
    i32 62, label %40
    i32 64, label %40
    i32 68, label %40
    i32 123, label %40
    i32 127, label %40
    i32 131, label %40
    i32 125, label %40
    i32 129, label %40
    i32 133, label %40
    i32 45, label %40
    i32 47, label %40
    i32 49, label %40
    i32 79, label %40
  ]

37:                                               ; preds = %27
  %38 = load ptr, ptr %3, align 8, !tbaa !4
  call void (ptr, i32, ptr, ...) @av_log(ptr noundef %38, i32 noundef 24, ptr noundef @.str.37)
  br label %61

39:                                               ; preds = %27, %27, %27, %27, %27, %27, %27
  br label %61

40:                                               ; preds = %27, %27, %27, %27, %27, %27, %27, %27, %27, %27, %27, %27, %27, %27, %27, %27, %27, %27, %27, %27
  %41 = load ptr, ptr %3, align 8, !tbaa !4
  %42 = getelementptr inbounds nuw %struct.AVFormatContext, ptr %41, i32 0, i32 43
  %43 = load i32, ptr %42, align 8, !tbaa !71
  %44 = icmp sge i32 %43, 0
  br i1 %44, label %45, label %57

45:                                               ; preds = %40
  %46 = load ptr, ptr %3, align 8, !tbaa !4
  %47 = load ptr, ptr %3, align 8, !tbaa !4
  %48 = getelementptr inbounds nuw %struct.AVFormatContext, ptr %47, i32 0, i32 7
  %49 = load ptr, ptr %48, align 8, !tbaa !28
  %50 = getelementptr inbounds ptr, ptr %49, i64 0
  %51 = load ptr, ptr %50, align 8, !tbaa !29
  %52 = getelementptr inbounds nuw %struct.AVStream, ptr %51, i32 0, i32 3
  %53 = load ptr, ptr %52, align 8, !tbaa !31
  %54 = getelementptr inbounds nuw %struct.AVCodecParameters, ptr %53, i32 0, i32 7
  %55 = load i32, ptr %54, align 4, !tbaa !50
  %56 = call ptr @av_get_pix_fmt_name(i32 noundef %55)
  call void (ptr, i32, ptr, ...) @av_log(ptr noundef %46, i32 noundef 16, ptr noundef @.str.38, ptr noundef %56)
  store i32 -22, ptr %2, align 4
  br label %62

57:                                               ; preds = %40
  %58 = load ptr, ptr %3, align 8, !tbaa !4
  call void (ptr, i32, ptr, ...) @av_log(ptr noundef %58, i32 noundef 24, ptr noundef @.str.39)
  br label %61

59:                                               ; preds = %27
  %60 = load ptr, ptr %3, align 8, !tbaa !4
  call void (ptr, i32, ptr, ...) @av_log(ptr noundef %60, i32 noundef 16, ptr noundef @.str.40)
  store i32 -5, ptr %2, align 4
  br label %62

61:                                               ; preds = %57, %39, %37
  store i32 0, ptr %2, align 4
  br label %62

62:                                               ; preds = %61, %59, %45, %25
  %63 = load i32, ptr %2, align 4
  ret i32 %63
}