; Function Attrs: nounwind uwtable
define internal range(i32 -1094995529, 1) i32 @yuv4_init(ptr noundef %0) #0 {
  %2 = getelementptr inbounds nuw i8, ptr %0, i64 48
  %3 = load ptr, ptr %2, align 8, !tbaa !24
  %4 = load ptr, ptr %3, align 8, !tbaa !25
  %5 = getelementptr inbounds nuw i8, ptr %4, i64 16
  %6 = load ptr, ptr %5, align 8, !tbaa !27
  %7 = getelementptr inbounds nuw i8, ptr %6, i64 4
  %8 = load i32, ptr %7, align 4, !tbaa !49
  switch i32 %8, label %9 [
    i32 135169, label %10
    i32 13, label %10
  ]

9:                                                ; preds = %1
  tail call void (ptr, i32, ptr, ...) @av_log(ptr noundef nonnull %0, i32 noundef 16, ptr noundef nonnull @.str.36) #3
  br label %22

10:                                               ; preds = %1, %1
  %11 = getelementptr inbounds nuw i8, ptr %6, i64 44
  %12 = load i32, ptr %11, align 4, !tbaa !44
  switch i32 %12, label %21 [
    i32 7, label %13
    i32 8, label %22
    i32 0, label %22
    i32 4, label %22
    i32 5, label %22
    i32 12, label %22
    i32 13, label %22
    i32 14, label %22
    i32 173, label %14
    i32 168, label %14
    i32 166, label %14
    i32 30, label %14
    i32 60, label %14
    i32 70, label %14
    i32 66, label %14
    i32 62, label %14
    i32 64, label %14
    i32 68, label %14
    i32 123, label %14
    i32 127, label %14
    i32 131, label %14
    i32 125, label %14
    i32 129, label %14
    i32 133, label %14
    i32 45, label %14
    i32 47, label %14
    i32 49, label %14
    i32 79, label %14
  ]

13:                                               ; preds = %10
  tail call void (ptr, i32, ptr, ...) @av_log(ptr noundef nonnull %0, i32 noundef 24, ptr noundef nonnull @.str.37) #3
  br label %22

14:                                               ; preds = %10, %10, %10, %10, %10, %10, %10, %10, %10, %10, %10, %10, %10, %10, %10, %10, %10, %10, %10, %10
  %15 = getelementptr inbounds nuw i8, ptr %0, i64 272
  %16 = load i32, ptr %15, align 8, !tbaa !61
  %17 = icmp sgt i32 %16, -1
  br i1 %17, label %18, label %20

18:                                               ; preds = %14
  %19 = tail call ptr @av_get_pix_fmt_name(i32 noundef %12) #3
  tail call void (ptr, i32, ptr, ...) @av_log(ptr noundef nonnull %0, i32 noundef 16, ptr noundef nonnull @.str.38, ptr noundef %19) #3
  br label %22

20:                                               ; preds = %14
  tail call void (ptr, i32, ptr, ...) @av_log(ptr noundef nonnull %0, i32 noundef 24, ptr noundef nonnull @.str.39) #3
  br label %22

21:                                               ; preds = %10
  tail call void (ptr, i32, ptr, ...) @av_log(ptr noundef nonnull %0, i32 noundef 16, ptr noundef nonnull @.str.40) #3
  br label %22

22:                                               ; preds = %13, %20, %10, %10, %10, %10, %10, %10, %10, %21, %18, %9
  %.0 = phi i32 [ -1094995529, %9 ], [ -5, %21 ], [ -22, %18 ], [ 0, %10 ], [ 0, %10 ], [ 0, %10 ], [ 0, %10 ], [ 0, %10 ], [ 0, %10 ], [ 0, %10 ], [ 0, %20 ], [ 0, %13 ]
  ret i32 %.0
}